target datalayout = "e-m:e-p270:32:32-p271:32:32-p272:64:64-i64:64-i128:128-f80:128-n8:16:32:64-S128"
target triple = "x86_64-pc-linux-gnu"

@.str.82 = private unnamed_addr constant [4 x i8] c"rtp\00", align 1
@.str.83 = private unnamed_addr constant [5 x i8] c"srtp\00", align 1
@.str.84 = private unnamed_addr constant [4 x i8] c"ttl\00", align 1

; Function Attrs: nounwind uwtable
define internal i32 @sdp_get_address(ptr noundef %0, i32 noundef %1, ptr noundef %2, ptr noundef %3) #0 {
  %5 = alloca i32, align 4
  %6 = alloca ptr, align 8
  %7 = alloca i32, align 4
  %8 = alloca ptr, align 8
  %9 = alloca ptr, align 8
  %10 = alloca i32, align 4
  %11 = alloca ptr, align 8
  %12 = alloca [32 x i8], align 16
  %13 = alloca i32, align 4
  %14 = alloca [64 x i8], align 16
  store ptr %0, ptr %6, align 8, !tbaa !4
  store i32 %1, ptr %7, align 4, !tbaa !9
  store ptr %2, ptr %8, align 8, !tbaa !81
  store ptr %3, ptr %9, align 8, !tbaa !4
  call void @llvm.lifetime.start.p0(i64 4, ptr %10) #8
  call void @llvm.lifetime.start.p0(i64 8, ptr %11) #8
  call void @llvm.lifetime.start.p0(i64 32, ptr %12) #8
  %15 = getelementptr inbounds [32 x i8], ptr %12, i64 0, i64 0
  %16 = load ptr, ptr %6, align 8, !tbaa !4
  %17 = load i32, ptr %7, align 4, !tbaa !9
  %18 = load ptr, ptr %9, align 8, !tbaa !4
  call void @av_url_split(ptr noundef %15, i32 noundef 32, ptr noundef null, i32 noundef 0, ptr noundef %16, i32 noundef %17, ptr noundef %10, ptr noundef null, i32 noundef 0, ptr noundef %18)
  %19 = load ptr, ptr %8, align 8, !tbaa !81
  store i32 0, ptr %19, align 4, !tbaa !9
  %20 = getelementptr inbounds [32 x i8], ptr %12, i64 0, i64 0
  %21 = call i32 @strcmp(ptr noundef %20, ptr noundef @.str.82) #9
  %22 = icmp ne i32 %21, 0
  br i1 %22, label %23, label %28

23:                                               ; preds = %4
  %24 = getelementptr inbounds [32 x i8], ptr %12, i64 0, i64 0
  %25 = call i32 @strcmp(ptr noundef %24, ptr noundef @.str.83) #9
  %26 = icmp ne i32 %25, 0
  br i1 %26, label %27, label %28

27:                                               ; preds = %23
  store i32 0, ptr %5, align 4
  store i32 1, ptr %13, align 4
  br label %48

28:                                               ; preds = %23, %4
  %29 = load ptr, ptr %9, align 8, !tbaa !4
  %30 = call ptr @strchr(ptr noundef %29, i32 noundef 63) #9
  store ptr %30, ptr %11, align 8, !tbaa !4
  %31 = load ptr, ptr %11, align 8, !tbaa !4
  %32 = icmp ne ptr %31, null
  br i1 %32, label %33, label %46

33:                                               ; preds = %28
  call void @llvm.lifetime.start.p0(i64 64, ptr %14) #8
  %34 = getelementptr inbounds [64 x i8], ptr %14, i64 0, i64 0
  %35 = load ptr, ptr %11, align 8, !tbaa !4
  %36 = call i32 @av_find_info_tag(ptr noundef %34, i32 noundef 64, ptr noundef @.str.84, ptr noundef %35)
  %37 = icmp ne i32 %36, 0
  br i1 %37, label %38, label %43

38:                                               ; preds = %33
  %39 = getelementptr inbounds [64 x i8], ptr %14, i64 0, i64 0
  %40 = call i64 @strtol(ptr noundef %39, ptr noundef null, i32 noundef 10) #8
  %41 = trunc i64 %40 to i32
  %42 = load ptr, ptr %8, align 8, !tbaa !81
  store i32 %41, ptr %42, align 4, !tbaa !9
  br label %45

43:                                               ; preds = %33
  %44 = load ptr, ptr %8, align 8, !tbaa !81
  store i32 5, ptr %44, align 4, !tbaa !9
  br label %45

45:                                               ; preds = %43, %38
  call void @llvm.lifetime.end.p0(i64 64, ptr %14) #8
  br label %46

46:                                               ; preds = %45, %28
  %47 = load i32, ptr %10, align 4, !tbaa !9
  store i32 %47, ptr %5, align 4
  store i32 1, ptr %13, align 4
  br label %48

48:                                               ; preds = %46, %27
  call void @llvm.lifetime.end.p0(i64 32, ptr %12) #8
  call void @llvm.lifetime.end.p0(i64 8, ptr %11) #8
  call void @llvm.lifetime.end.p0(i64 4, ptr %10) #8
  %49 = load i32, ptr %5, align 4
  ret i32 %49
}