; Function Attrs: nounwind uwtable
define internal fastcc i32 @sdp_get_address(ptr noundef nonnull %0, ptr noundef nonnull writeonly captures(none) initializes((0, 4)) %1, ptr noundef %2) unnamed_addr #0 {
  %4 = alloca i32, align 4
  %5 = alloca [32 x i8], align 16
  %6 = alloca [64 x i8], align 16
  call void @llvm.lifetime.start.p0(i64 4, ptr nonnull %4) #10
  call void @llvm.lifetime.start.p0(i64 32, ptr nonnull %5) #10
  call void @av_url_split(ptr noundef nonnull %5, i32 noundef 32, ptr noundef null, i32 noundef 0, ptr noundef nonnull %0, i32 noundef 32, ptr noundef nonnull %4, ptr noundef null, i32 noundef 0, ptr noundef %2) #10
  store i32 0, ptr %1, align 4, !tbaa !47
  %lhsv = load i32, ptr %5, align 16
  %.not = icmp eq i32 %lhsv, 7369842
  br i1 %.not, label %8, label %7

7:                                                ; preds = %3
  %bcmp = call i32 @bcmp(ptr noundef nonnull dereferenceable(5) %5, ptr noundef nonnull dereferenceable(5) @.str.83, i64 5)
  %.not11 = icmp eq i32 %bcmp, 0
  br i1 %.not11, label %8, label %18

8:                                                ; preds = %7, %3
  %9 = call ptr @strchr(ptr noundef nonnull dereferenceable(1) %2, i32 noundef 63) #11
  %.not12 = icmp eq ptr %9, null
  br i1 %.not12, label %16, label %10

10:                                               ; preds = %8
  call void @llvm.lifetime.start.p0(i64 64, ptr nonnull %6) #10
  %11 = call i32 @av_find_info_tag(ptr noundef nonnull %6, i32 noundef 64, ptr noundef nonnull @.str.84, ptr noundef nonnull %9) #10
  %.not13 = icmp eq i32 %11, 0
  br i1 %.not13, label %15, label %12

12:                                               ; preds = %10
  %13 = call i64 @strtol(ptr noundef nonnull captures(none) %6, ptr noundef null, i32 noundef 10) #10
  %14 = trunc i64 %13 to i32
  br label %15

15:                                               ; preds = %10, %12
  %storemerge = phi i32 [ %14, %12 ], [ 5, %10 ]
  store i32 %storemerge, ptr %1, align 4, !tbaa !47
  call void @llvm.lifetime.end.p0(i64 64, ptr nonnull %6) #10
  br label %16

16:                                               ; preds = %15, %8
  %17 = load i32, ptr %4, align 4, !tbaa !47
  br label %18

18:                                               ; preds = %7, %16
  %.0 = phi i32 [ %17, %16 ], [ 0, %7 ]
  call void @llvm.lifetime.end.p0(i64 32, ptr nonnull %5) #10
  call void @llvm.lifetime.end.p0(i64 4, ptr nonnull %4) #10
  ret i32 %.0
}